target datalayout = "e-m:e-p270:32:32-p271:32:32-p272:64:64-i64:64-i128:128-f80:128-n8:16:32:64-S128"
target triple = "x86_64-pc-linux-gnu"

@stderr = external global ptr, align 8
@.str.13 = private unnamed_addr constant [6 x i8] c"got :\00", align 1
@.str.14 = private unnamed_addr constant [6 x i8] c"want:\00", align 1

; Function Attrs: mustprogress uwtable
define internal void @_ZL4dumpPKhS0_m(ptr noundef %0, ptr noundef %1, i64 noundef %2) #1 {
  %4 = alloca ptr, align 8
  %5 = alloca ptr, align 8
  %6 = alloca i64, align 8
  store ptr %0, ptr %4, align 8, !tbaa !13
  store ptr %1, ptr %5, align 8, !tbaa !13
  store i64 %2, ptr %6, align 8, !tbaa !15
  %7 = load ptr, ptr @stderr, align 8, !tbaa !17
  %8 = load ptr, ptr %4, align 8, !tbaa !13
  %9 = load i64, ptr %6, align 8, !tbaa !15
  call void @hexdump(ptr noundef %7, ptr noundef @.str.13, ptr noundef %8, i64 noundef %9)
  %10 = load ptr, ptr @stderr, align 8, !tbaa !17
  %11 = load ptr, ptr %5, align 8, !tbaa !13
  %12 = load i64, ptr %6, align 8, !tbaa !15
  call void @hexdump(ptr noundef %10, ptr noundef @.str.14, ptr noundef %11, i64 noundef %12)
  %13 = load ptr, ptr @stderr, align 8, !tbaa !17
  %14 = call i32 @fflush(ptr noundef %13)
  ret void
}