; Function Attrs: mustprogress norecurse uwtable
define internal fastcc void @_ZL4dumpPKhS0_m(ptr noundef nonnull %0, ptr noundef %1) unnamed_addr #0 {
  %3 = load ptr, ptr @stderr, align 8, !tbaa !6
  tail call void @hexdump(ptr noundef %3, ptr noundef nonnull @.str.13, ptr noundef nonnull %0, i64 noundef 16)
  %4 = load ptr, ptr @stderr, align 8, !tbaa !6
  tail call void @hexdump(ptr noundef %4, ptr noundef nonnull @.str.14, ptr noundef %1, i64 noundef 16)
  %5 = load ptr, ptr @stderr, align 8, !tbaa !6
  %6 = tail call i32 @fflush(ptr noundef %5)
  ret void
}